target datalayout = "e-m:e-p270:32:32-p271:32:32-p272:64:64-i64:64-i128:128-f80:128-n8:16:32:64-S128"
target triple = "x86_64-pc-linux-gnu"

@.str.4 = private unnamed_addr constant [7 x i8] c"\\x%02x\00", align 1
@.str.5 = private unnamed_addr constant [6 x i8] c"\\%03o\00", align 1

; Function Attrs: inlinehint mustprogress nounwind uwtable
define linkonce_odr hidden noundef zeroext i1 @_ZN6google8protobuf8isxdigitEc(i8 noundef signext %0) #8 comdat {
  %2 = alloca i8, align 1
  store i8 %0, ptr %2, align 1, !tbaa !10
  %3 = load i8, ptr %2, align 1, !tbaa !10
  %4 = sext i8 %3 to i32
  %5 = icmp sle i32 48, %4
  br i1 %5, label %6, label %10

6:                                                ; preds = %1
  %7 = load i8, ptr %2, align 1, !tbaa !10
  %8 = sext i8 %7 to i32
  %9 = icmp sle i32 %8, 57
  br i1 %9, label %28, label %10

10:                                               ; preds = %6, %1
  %11 = load i8, ptr %2, align 1, !tbaa !10
  %12 = sext i8 %11 to i32
  %13 = icmp sle i32 97, %12
  br i1 %13, label %14, label %18

14:                                               ; preds = %10
  %15 = load i8, ptr %2, align 1, !tbaa !10
  %16 = sext i8 %15 to i32
  %17 = icmp sle i32 %16, 102
  br i1 %17, label %28, label %18

18:                                               ; preds = %14, %10
  %19 = load i8, ptr %2, align 1, !tbaa !10
  %20 = sext i8 %19 to i32
  %21 = icmp sle i32 65, %20
  br i1 %21, label %22, label %26

22:                                               ; preds = %18
  %23 = load i8, ptr %2, align 1, !tbaa !10
  %24 = sext i8 %23 to i32
  %25 = icmp sle i32 %24, 70
  br label %26

26:                                               ; preds = %22, %18
  %27 = phi i1 [ false, %18 ], [ %25, %22 ]
  br label %28

28:                                               ; preds = %26, %14, %6
  %29 = phi i1 [ true, %14 ], [ true, %6 ], [ %27, %26 ]
  ret i1 %29
}

; Function Attrs: inlinehint mustprogress nounwind uwtable
define linkonce_odr hidden noundef zeroext i1 @_ZN6google8protobuf7isprintEc(i8 noundef signext %0) #8 comdat {
  %2 = alloca i8, align 1
  store i8 %0, ptr %2, align 1, !tbaa !10
  %3 = load i8, ptr %2, align 1, !tbaa !10
  %4 = sext i8 %3 to i32
  %5 = icmp sge i32 %4, 32
  br i1 %5, label %6, label %10

6:                                                ; preds = %1
  %7 = load i8, ptr %2, align 1, !tbaa !10
  %8 = sext i8 %7 to i32
  %9 = icmp sle i32 %8, 126
  br label %10

10:                                               ; preds = %6, %1
  %11 = phi i1 [ false, %1 ], [ %9, %6 ]
  ret i1 %11
}

; Function Attrs: mustprogress uwtable
define hidden noundef i32 @_ZN6google8protobuf15CEscapeInternalEPKciPcibb(ptr noundef %0, i32 noundef %1, ptr noundef %2, i32 noundef %3, i1 noundef zeroext %4, i1 noundef zeroext %5) #4 {
  %7 = alloca i32, align 4
  %8 = alloca ptr, align 8
  %9 = alloca i32, align 4
  %10 = alloca ptr, align 8
  %11 = alloca i32, align 4
  %12 = alloca i8, align 1
  %13 = alloca i8, align 1
  %14 = alloca ptr, align 8
  %15 = alloca i32, align 4
  %16 = alloca i8, align 1
  %17 = alloca i32, align 4
  %18 = alloca i8, align 1
  store ptr %0, ptr %8, align 8, !tbaa !8
  store i32 %1, ptr %9, align 4, !tbaa !15
  store ptr %2, ptr %10, align 8, !tbaa !8
  store i32 %3, ptr %11, align 4, !tbaa !15
  %19 = zext i1 %4 to i8
  store i8 %19, ptr %12, align 1, !tbaa !22
  %20 = zext i1 %5 to i8
  store i8 %20, ptr %13, align 1, !tbaa !22
  call void @llvm.lifetime.start.p0(i64 8, ptr %14) #3
  %21 = load ptr, ptr %8, align 8, !tbaa !8
  %22 = load i32, ptr %9, align 4, !tbaa !15
  %23 = sext i32 %22 to i64
  %24 = getelementptr inbounds i8, ptr %21, i64 %23
  store ptr %24, ptr %14, align 8, !tbaa !8
  call void @llvm.lifetime.start.p0(i64 4, ptr %15) #3
  store i32 0, ptr %15, align 4, !tbaa !15
  call void @llvm.lifetime.start.p0(i64 1, ptr %16) #3
  store i8 0, ptr %16, align 1, !tbaa !22
  br label %25

25:                                               ; preds = %163, %6
  %26 = load ptr, ptr %8, align 8, !tbaa !8
  %27 = load ptr, ptr %14, align 8, !tbaa !8
  %28 = icmp ult ptr %26, %27
  br i1 %28, label %29, label %166

29:                                               ; preds = %25
  %30 = load i32, ptr %11, align 4, !tbaa !15
  %31 = load i32, ptr %15, align 4, !tbaa !15
  %32 = sub nsw i32 %30, %31
  %33 = icmp slt i32 %32, 2
  br i1 %33, label %34, label %35

34:                                               ; preds = %29
  store i32 -1, ptr %7, align 4
  store i32 1, ptr %17, align 4
  br label %178

35:                                               ; preds = %29
  call void @llvm.lifetime.start.p0(i64 1, ptr %18) #3
  store i8 0, ptr %18, align 1, !tbaa !22
  %36 = load ptr, ptr %8, align 8, !tbaa !8
  %37 = load i8, ptr %36, align 1, !tbaa !10
  %38 = sext i8 %37 to i32
  switch i32 %38, label %105 [
    i32 10, label %39
    i32 13, label %50
    i32 9, label %61
    i32 34, label %72
    i32 39, label %83
    i32 92, label %94
  ]

39:                                               ; preds = %35
  %40 = load ptr, ptr %10, align 8, !tbaa !8
  %41 = load i32, ptr %15, align 4, !tbaa !15
  %42 = add nsw i32 %41, 1
  store i32 %42, ptr %15, align 4, !tbaa !15
  %43 = sext i32 %41 to i64
  %44 = getelementptr inbounds i8, ptr %40, i64 %43
  store i8 92, ptr %44, align 1, !tbaa !10
  %45 = load ptr, ptr %10, align 8, !tbaa !8
  %46 = load i32, ptr %15, align 4, !tbaa !15
  %47 = add nsw i32 %46, 1
  store i32 %47, ptr %15, align 4, !tbaa !15
  %48 = sext i32 %46 to i64
  %49 = getelementptr inbounds i8, ptr %45, i64 %48
  store i8 110, ptr %49, align 1, !tbaa !10
  br label %156

50:                                               ; preds = %35
  %51 = load ptr, ptr %10, align 8, !tbaa !8
  %52 = load i32, ptr %15, align 4, !tbaa !15
  %53 = add nsw i32 %52, 1
  store i32 %53, ptr %15, align 4, !tbaa !15
  %54 = sext i32 %52 to i64
  %55 = getelementptr inbounds i8, ptr %51, i64 %54
  store i8 92, ptr %55, align 1, !tbaa !10
  %56 = load ptr, ptr %10, align 8, !tbaa !8
  %57 = load i32, ptr %15, align 4, !tbaa !15
  %58 = add nsw i32 %57, 1
  store i32 %58, ptr %15, align 4, !tbaa !15
  %59 = sext i32 %57 to i64
  %60 = getelementptr inbounds i8, ptr %56, i64 %59
  store i8 114, ptr %60, align 1, !tbaa !10
  br label %156

61:                                               ; preds = %35
  %62 = load ptr, ptr %10, align 8, !tbaa !8
  %63 = load i32, ptr %15, align 4, !tbaa !15
  %64 = add nsw i32 %63, 1
  store i32 %64, ptr %15, align 4, !tbaa !15
  %65 = sext i32 %63 to i64
  %66 = getelementptr inbounds i8, ptr %62, i64 %65
  store i8 92, ptr %66, align 1, !tbaa !10
  %67 = load ptr, ptr %10, align 8, !tbaa !8
  %68 = load i32, ptr %15, align 4, !tbaa !15
  %69 = add nsw i32 %68, 1
  store i32 %69, ptr %15, align 4, !tbaa !15
  %70 = sext i32 %68 to i64
  %71 = getelementptr inbounds i8, ptr %67, i64 %70
  store i8 116, ptr %71, align 1, !tbaa !10
  br label %156

72:                                               ; preds = %35
  %73 = load ptr, ptr %10, align 8, !tbaa !8
  %74 = load i32, ptr %15, align 4, !tbaa !15
  %75 = add nsw i32 %74, 1
  store i32 %75, ptr %15, align 4, !tbaa !15
  %76 = sext i32 %74 to i64
  %77 = getelementptr inbounds i8, ptr %73, i64 %76
  store i8 92, ptr %77, align 1, !tbaa !10
  %78 = load ptr, ptr %10, align 8, !tbaa !8
  %79 = load i32, ptr %15, align 4, !tbaa !15
  %80 = add nsw i32 %79, 1
  store i32 %80, ptr %15, align 4, !tbaa !15
  %81 = sext i32 %79 to i64
  %82 = getelementptr inbounds i8, ptr %78, i64 %81
  store i8 34, ptr %82, align 1, !tbaa !10
  br label %156

83:                                               ; preds = %35
  %84 = load ptr, ptr %10, align 8, !tbaa !8
  %85 = load i32, ptr %15, align 4, !tbaa !15
  %86 = add nsw i32 %85, 1
  store i32 %86, ptr %15, align 4, !tbaa !15
  %87 = sext i32 %85 to i64
  %88 = getelementptr inbounds i8, ptr %84, i64 %87
  store i8 92, ptr %88, align 1, !tbaa !10
  %89 = load ptr, ptr %10, align 8, !tbaa !8
  %90 = load i32, ptr %15, align 4, !tbaa !15
  %91 = add nsw i32 %90, 1
  store i32 %91, ptr %15, align 4, !tbaa !15
  %92 = sext i32 %90 to i64
  %93 = getelementptr inbounds i8, ptr %89, i64 %92
  store i8 39, ptr %93, align 1, !tbaa !10
  br label %156

94:                                               ; preds = %35
  %95 = load ptr, ptr %10, align 8, !tbaa !8
  %96 = load i32, ptr %15, align 4, !tbaa !15
  %97 = add nsw i32 %96, 1
  store i32 %97, ptr %15, align 4, !tbaa !15
  %98 = sext i32 %96 to i64
  %99 = getelementptr inbounds i8, ptr %95, i64 %98
  store i8 92, ptr %99, align 1, !tbaa !10
  %100 = load ptr, ptr %10, align 8, !tbaa !8
  %101 = load i32, ptr %15, align 4, !tbaa !15
  %102 = add nsw i32 %101, 1
  store i32 %102, ptr %15, align 4, !tbaa !15
  %103 = sext i32 %101 to i64
  %104 = getelementptr inbounds i8, ptr %100, i64 %103
  store i8 92, ptr %104, align 1, !tbaa !10
  br label %156

105:                                              ; preds = %35
  %106 = load i8, ptr %13, align 1, !tbaa !22, !range !24, !noundef !25
  %107 = trunc i8 %106 to i1
  br i1 %107, label %108, label %113

108:                                              ; preds = %105
  %109 = load ptr, ptr %8, align 8, !tbaa !8
  %110 = load i8, ptr %109, align 1, !tbaa !10
  %111 = zext i8 %110 to i32
  %112 = icmp slt i32 %111, 128
  br i1 %112, label %113, label %147

113:                                              ; preds = %108, %105
  %114 = load ptr, ptr %8, align 8, !tbaa !8
  %115 = load i8, ptr %114, align 1, !tbaa !10
  %116 = call noundef zeroext i1 @_ZN6google8protobuf7isprintEc(i8 noundef signext %115)
  br i1 %116, label %117, label %124

117:                                              ; preds = %113
  %118 = load i8, ptr %16, align 1, !tbaa !22, !range !24, !noundef !25
  %119 = trunc i8 %118 to i1
  br i1 %119, label %120, label %147

120:                                              ; preds = %117
  %121 = load ptr, ptr %8, align 8, !tbaa !8
  %122 = load i8, ptr %121, align 1, !tbaa !10
  %123 = call noundef zeroext i1 @_ZN6google8protobuf8isxdigitEc(i8 noundef signext %122)
  br i1 %123, label %124, label %147

124:                                              ; preds = %120, %113
  %125 = load i32, ptr %11, align 4, !tbaa !15
  %126 = load i32, ptr %15, align 4, !tbaa !15
  %127 = sub nsw i32 %125, %126
  %128 = icmp slt i32 %127, 4
  br i1 %128, label %129, label %130

129:                                              ; preds = %124
  store i32 -1, ptr %7, align 4
  store i32 1, ptr %17, align 4
  br label %160

130:                                              ; preds = %124
  %131 = load ptr, ptr %10, align 8, !tbaa !8
  %132 = load i32, ptr %15, align 4, !tbaa !15
  %133 = sext i32 %132 to i64
  %134 = getelementptr inbounds i8, ptr %131, i64 %133
  %135 = load i8, ptr %12, align 1, !tbaa !22, !range !24, !noundef !25
  %136 = trunc i8 %135 to i1
  %137 = select i1 %136, ptr @.str.4, ptr @.str.5
  %138 = load ptr, ptr %8, align 8, !tbaa !8
  %139 = load i8, ptr %138, align 1, !tbaa !10
  %140 = zext i8 %139 to i32
  %141 = call i32 (ptr, ptr, ...) @sprintf(ptr noundef %134, ptr noundef %137, i32 noundef %140) #3
  %142 = load i8, ptr %12, align 1, !tbaa !22, !range !24, !noundef !25
  %143 = trunc i8 %142 to i1
  %144 = zext i1 %143 to i8
  store i8 %144, ptr %18, align 1, !tbaa !22
  %145 = load i32, ptr %15, align 4, !tbaa !15
  %146 = add nsw i32 %145, 4
  store i32 %146, ptr %15, align 4, !tbaa !15
  br label %155

147:                                              ; preds = %120, %117, %108
  %148 = load ptr, ptr %8, align 8, !tbaa !8
  %149 = load i8, ptr %148, align 1, !tbaa !10
  %150 = load ptr, ptr %10, align 8, !tbaa !8
  %151 = load i32, ptr %15, align 4, !tbaa !15
  %152 = add nsw i32 %151, 1
  store i32 %152, ptr %15, align 4, !tbaa !15
  %153 = sext i32 %151 to i64
  %154 = getelementptr inbounds i8, ptr %150, i64 %153
  store i8 %149, ptr %154, align 1, !tbaa !10
  br label %156

155:                                              ; preds = %130
  br label %156

156:                                              ; preds = %155, %147, %94, %83, %72, %61, %50, %39
  %157 = load i8, ptr %18, align 1, !tbaa !22, !range !24, !noundef !25
  %158 = trunc i8 %157 to i1
  %159 = zext i1 %158 to i8
  store i8 %159, ptr %16, align 1, !tbaa !22
  store i32 0, ptr %17, align 4
  br label %160

160:                                              ; preds = %156, %129
  call void @llvm.lifetime.end.p0(i64 1, ptr %18) #3
  %161 = load i32, ptr %17, align 4
  switch i32 %161, label %178 [
    i32 0, label %162
  ]

162:                                              ; preds = %160
  br label %163

163:                                              ; preds = %162
  %164 = load ptr, ptr %8, align 8, !tbaa !8
  %165 = getelementptr inbounds nuw i8, ptr %164, i32 1
  store ptr %165, ptr %8, align 8, !tbaa !8
  br label %25, !llvm.loop !54

166:                                              ; preds = %25
  %167 = load i32, ptr %11, align 4, !tbaa !15
  %168 = load i32, ptr %15, align 4, !tbaa !15
  %169 = sub nsw i32 %167, %168
  %170 = icmp slt i32 %169, 1
  br i1 %170, label %171, label %172

171:                                              ; preds = %166
  store i32 -1, ptr %7, align 4
  store i32 1, ptr %17, align 4
  br label %178

172:                                              ; preds = %166
  %173 = load ptr, ptr %10, align 8, !tbaa !8
  %174 = load i32, ptr %15, align 4, !tbaa !15
  %175 = sext i32 %174 to i64
  %176 = getelementptr inbounds i8, ptr %173, i64 %175
  store i8 0, ptr %176, align 1, !tbaa !10
  %177 = load i32, ptr %15, align 4, !tbaa !15
  store i32 %177, ptr %7, align 4
  store i32 1, ptr %17, align 4
  br label %178

178:                                              ; preds = %172, %171, %160, %34
  call void @llvm.lifetime.end.p0(i64 1, ptr %16) #3
  call void @llvm.lifetime.end.p0(i64 4, ptr %15) #3
  call void @llvm.lifetime.end.p0(i64 8, ptr %14) #3
  %179 = load i32, ptr %7, align 4
  ret i32 %179
}